; Function Attrs: mustprogress nounwind uwtable
define dso_local noundef ptr @LLVMBuildSelect(ptr noundef %0, ptr noundef %1, ptr noundef %2, ptr noundef %3, ptr noundef %4) local_unnamed_addr #0 {
  %6 = alloca %"class.llvm::Twine", align 8
  %7 = getelementptr inbounds nuw i8, ptr %6, i64 33
  store i8 1, ptr %7, align 1
  %8 = load i8, ptr %4, align 1
  %.not.i = icmp eq i8 %8, 0
  br i1 %.not.i, label %_ZN4llvm5TwineC2EPKc.exit, label %9

9:                                                ; preds = %5
  store ptr %4, ptr %6, align 8
  br label %_ZN4llvm5TwineC2EPKc.exit

_ZN4llvm5TwineC2EPKc.exit:                        ; preds = %5, %9
  %storemerge.i = phi i8 [ 3, %9 ], [ 1, %5 ]
  %10 = getelementptr inbounds nuw i8, ptr %6, i64 32
  store i8 %storemerge.i, ptr %10, align 8
  %11 = call noundef ptr @_ZN4llvm13IRBuilderBase12CreateSelectEPNS_5ValueES2_S2_RKNS_5TwineEPNS_11InstructionE(ptr noundef nonnull align 8 dereferenceable(128) %0, ptr noundef %1, ptr noundef %2, ptr noundef %3, ptr noundef nonnull align 8 dereferenceable(34) %6, ptr noundef null) #35
  ret ptr %11
}